target datalayout = "e-m:e-p270:32:32-p271:32:32-p272:64:64-i64:64-i128:128-f80:128-n8:16:32:64-S128"
target triple = "x86_64-pc-linux-gnu"

%struct.Vec_Int_t_ = type { i32, i32, ptr }
%struct.Abc_Ntk_t_ = type { i32, i32, ptr, ptr, ptr, ptr, ptr, ptr, ptr, ptr, ptr, ptr, ptr, [11 x i32], i32, i32, i32, i32, ptr, i32, ptr, ptr, i32, i32, i32, double, i32, %struct.Vec_Int_t_, ptr, ptr, ptr, ptr, ptr, float, i32, ptr, ptr, ptr, ptr, ptr, ptr, ptr, ptr, ptr, ptr, ptr, ptr, ptr, ptr, ptr, ptr, ptr, ptr, ptr, ptr, ptr }
%struct.Aig_Man_t_ = type { ptr, ptr, ptr, ptr, ptr, ptr, ptr, %struct.Aig_Obj_t_, i32, i32, i32, i32, i32, i32, [7 x i32], i32, ptr, i32, ptr, i32, ptr, i32, i32, i32, ptr, i32, i32, i32, i32, i32, ptr, ptr, i32, ptr, ptr, i32, ptr, ptr, i32, i32, i32, ptr, ptr, ptr, ptr, ptr, ptr, ptr, ptr, ptr, ptr, ptr, ptr, ptr, ptr, i32, ptr, ptr, ptr, ptr, i32, i64, i64, i64, ptr, ptr }
%struct.Aig_Obj_t_ = type { %union.anon, ptr, ptr, i64, i32, i32, %union.anon.0 }
%union.anon = type { ptr }
%union.anon.0 = type { ptr }

; Function Attrs: nounwind uwtable
define ptr @Abc_NtkDarFold(ptr noundef %0, i32 noundef %1, i32 noundef %2) #0 {
  %4 = alloca ptr, align 8
  %5 = alloca ptr, align 8
  %6 = alloca i32, align 4
  %7 = alloca i32, align 4
  %8 = alloca ptr, align 8
  %9 = alloca ptr, align 8
  %10 = alloca ptr, align 8
  store ptr %0, ptr %5, align 8
  store i32 %1, ptr %6, align 4
  store i32 %2, ptr %7, align 4
  %11 = load ptr, ptr %5, align 8
  %12 = call ptr @Abc_NtkToDar(ptr noundef %11, i32 noundef 0, i32 noundef 1)
  store ptr %12, ptr %9, align 8
  %13 = load ptr, ptr %9, align 8
  %14 = icmp eq ptr %13, null
  br i1 %14, label %15, label %16

15:                                               ; preds = %3
  store ptr null, ptr %4, align 8
  br label %38

16:                                               ; preds = %3
  %17 = load ptr, ptr %9, align 8
  store ptr %17, ptr %10, align 8
  %18 = load i32, ptr %6, align 4
  %19 = load i32, ptr %7, align 4
  %20 = call ptr @Saig_ManDupFoldConstrsFunc(ptr noundef %17, i32 noundef %18, i32 noundef %19)
  store ptr %20, ptr %9, align 8
  %21 = load ptr, ptr %10, align 8
  call void @Aig_ManStop(ptr noundef %21)
  %22 = load ptr, ptr %9, align 8
  %23 = call ptr @Abc_NtkFromAigPhase(ptr noundef %22)
  store ptr %23, ptr %8, align 8
  %24 = load ptr, ptr %9, align 8
  %25 = getelementptr inbounds %struct.Aig_Man_t_, ptr %24, i32 0, i32 0
  %26 = load ptr, ptr %25, align 8
  %27 = call ptr @Extra_UtilStrsav(ptr noundef %26)
  %28 = load ptr, ptr %8, align 8
  %29 = getelementptr inbounds %struct.Abc_Ntk_t_, ptr %28, i32 0, i32 2
  store ptr %27, ptr %29, align 8
  %30 = load ptr, ptr %9, align 8
  %31 = getelementptr inbounds %struct.Aig_Man_t_, ptr %30, i32 0, i32 1
  %32 = load ptr, ptr %31, align 8
  %33 = call ptr @Extra_UtilStrsav(ptr noundef %32)
  %34 = load ptr, ptr %8, align 8
  %35 = getelementptr inbounds %struct.Abc_Ntk_t_, ptr %34, i32 0, i32 3
  store ptr %33, ptr %35, align 8
  %36 = load ptr, ptr %9, align 8
  call void @Aig_ManStop(ptr noundef %36)
  %37 = load ptr, ptr %8, align 8
  store ptr %37, ptr %4, align 8
  br label %38

38:                                               ; preds = %16, %15
  %39 = load ptr, ptr %4, align 8
  ret ptr %39
}