; Function Attrs: nounwind uwtable
define noundef ptr @Abc_NtkDarFold(ptr noundef %0, i32 noundef %1, i32 noundef %2) local_unnamed_addr #1 {
  %4 = tail call ptr @Abc_NtkToDar(ptr noundef %0, i32 noundef 0, i32 noundef 1)
  %5 = icmp eq ptr %4, null
  br i1 %5, label %16, label %6

6:                                                ; preds = %3
  %7 = tail call ptr @Saig_ManDupFoldConstrsFunc(ptr noundef nonnull %4, i32 noundef %1, i32 noundef %2) #19
  tail call void @Aig_ManStop(ptr noundef nonnull %4) #19
  %8 = tail call ptr @Abc_NtkFromAigPhase(ptr noundef %7)
  %9 = load ptr, ptr %7, align 8
  %10 = tail call ptr @Extra_UtilStrsav(ptr noundef %9) #19
  %11 = getelementptr inbounds nuw i8, ptr %8, i64 8
  store ptr %10, ptr %11, align 8
  %12 = getelementptr inbounds nuw i8, ptr %7, i64 8
  %13 = load ptr, ptr %12, align 8
  %14 = tail call ptr @Extra_UtilStrsav(ptr noundef %13) #19
  %15 = getelementptr inbounds nuw i8, ptr %8, i64 16
  store ptr %14, ptr %15, align 8
  tail call void @Aig_ManStop(ptr noundef nonnull %7) #19
  br label %16

16:                                               ; preds = %3, %6
  %.0 = phi ptr [ %8, %6 ], [ null, %3 ]
  ret ptr %.0
}